ccopy_reg
_reconstructor
p0
(cgoogle.oauth2.credentials
Credentials
p1
c__builtin__
object
p2
Ntp3
Rp4
(dp5
S'_token_uri'
p6
Vhttps://oauth2.googleapis.com/token
p7
sS'_scopes'
p8
(lp9
S'https://www.googleapis.com/auth/gmail.readonly'
p10
asS'_id_token'
p11
NsS'token'
p12
Vya29.ImCyB2vA6Fbb9HkcfY_s6J7n13HnXA8Yh5NJ088qGr0clNZJoxpByr7ZDOzyc8yF0pwf-Xxt6dc2qIBab9N69WVl1TbmmqECqR-yQvqVwZyr2YYDmMsx7jgy4WnjVxoq-Q4
p13
sS'_refresh_token'
p14
V1//0dWBO3Mfk46j-CgYIARAAGA0SNwF-L9IrndW0aN2Scs7cu2auEdRkGLsvuJT8zmXBjyHwJeYIHe3wRCoMUzgWglVvhCve7Yp5xT0
p15
sS'_client_secret'
p16
VYBzDi2FAmUcSEGJozS1nlXKu
p17
sS'_client_id'
p18
V380472120487-qhor605i6grpj24jiql32eakgroker1c.apps.googleusercontent.com
p19
sS'expiry'
p20
cdatetime
datetime
p21
(S'\x07\xe3\x0b\x17\x13\x14\x00\r\xcd|'
p22
tp23
Rp24
sb.