ccopy_reg
_reconstructor
p0
(cgoogle.oauth2.credentials
Credentials
p1
c__builtin__
object
p2
Ntp3
Rp4
(dp5
S'_token_uri'
p6
Vhttps://oauth2.googleapis.com/token
p7
sS'_scopes'
p8
(lp9
S'https://www.googleapis.com/auth/gmail.readonly'
p10
asS'_id_token'
p11
NsS'token'
p12
Vya29.ImCyB8Zn9hwSWHkEdk2-P3UZcxZOwf_GO35rbZeNKf1cNT98QheC8SfjDwCiSGLXC2LRBp37KziU-5OIS7_rCk8l44a1XWNsJEZwDmHQqyD6n8BzJUHw3no0P0DOPknVNNg
p13
sS'_refresh_token'
p14
V1//0dWBO3Mfk46j-CgYIARAAGA0SNwF-L9IrndW0aN2Scs7cu2auEdRkGLsvuJT8zmXBjyHwJeYIHe3wRCoMUzgWglVvhCve7Yp5xT0
p15
sS'_client_secret'
p16
VYBzDi2FAmUcSEGJozS1nlXKu
p17
sS'_client_id'
p18
V380472120487-qhor605i6grpj24jiql32eakgroker1c.apps.googleusercontent.com
p19
sS'expiry'
p20
cdatetime
datetime
p21
(S'\x07\xe3\x0b\x1c\x10\x08\r\n\x93s'
p22
tp23
Rp24
sb.